target datalayout = "e-m:e-p270:32:32-p271:32:32-p272:64:64-i64:64-f80:128-n8:16:32:64-S128"
target triple = "x86_64-pc-linux-gnu"

@.str = private unnamed_addr constant [5 x i8] c"%s%s\00", align 1
@.str.1 = private unnamed_addr constant [4 x i8] c"%s\0A\00", align 1

; Function Attrs: noinline nounwind uwtable
define dso_local void @main() #0 {
  %1 = alloca [15 x i8], align 1
  %2 = alloca [5 x i8], align 1
  %3 = alloca i8, align 1
  %4 = alloca i32, align 4
  %5 = alloca i32, align 4
  %6 = alloca i32, align 4
  %7 = alloca i32, align 4
  %8 = alloca i32, align 4
  br label %9

9:                                                ; preds = %102, %0
  %10 = getelementptr inbounds [15 x i8], [15 x i8]* %1, i64 0, i64 0
  %11 = getelementptr inbounds [5 x i8], [5 x i8]* %2, i64 0, i64 0
  %12 = call i32 (i8*, ...) @__isoc99_scanf(i8* getelementptr inbounds ([5 x i8], [5 x i8]* @.str, i64 0, i64 0), i8* %10, i8* %11)
  %13 = icmp ne i32 %12, -1
  br i1 %13, label %14, label %110

14:                                               ; preds = %9
  %15 = getelementptr inbounds [5 x i8], [5 x i8]* %2, i64 0, i64 0
  %16 = call i64 @strlen(i8* %15) #3
  %17 = trunc i64 %16 to i32
  store i32 %17, i32* %6, align 4
  %18 = getelementptr inbounds [15 x i8], [15 x i8]* %1, i64 0, i64 0
  %19 = call i64 @strlen(i8* %18) #3
  %20 = trunc i64 %19 to i32
  store i32 %20, i32* %7, align 4
  store i8 0, i8* %3, align 1
  store i32 0, i32* %4, align 4
  br label %21

21:                                               ; preds = %40, %14
  %22 = load i32, i32* %4, align 4
  %23 = load i32, i32* %7, align 4
  %24 = icmp slt i32 %22, %23
  br i1 %24, label %25, label %43

25:                                               ; preds = %21
  %26 = load i8, i8* %3, align 1
  %27 = sext i8 %26 to i32
  %28 = load i32, i32* %4, align 4
  %29 = sext i32 %28 to i64
  %30 = getelementptr inbounds [15 x i8], [15 x i8]* %1, i64 0, i64 %29
  %31 = load i8, i8* %30, align 1
  %32 = sext i8 %31 to i32
  %33 = icmp slt i32 %27, %32
  br i1 %33, label %34, label %39

34:                                               ; preds = %25
  %35 = load i32, i32* %4, align 4
  %36 = sext i32 %35 to i64
  %37 = getelementptr inbounds [15 x i8], [15 x i8]* %1, i64 0, i64 %36
  %38 = load i8, i8* %37, align 1
  store i8 %38, i8* %3, align 1
  br label %39

39:                                               ; preds = %34, %25
  br label %40

40:                                               ; preds = %39
  %41 = load i32, i32* %4, align 4
  %42 = add nsw i32 %41, 1
  store i32 %42, i32* %4, align 4
  br label %21

43:                                               ; preds = %21
  store i32 0, i32* %5, align 4
  br label %44

44:                                               ; preds = %55, %43
  %45 = load i8, i8* %3, align 1
  %46 = sext i8 %45 to i32
  %47 = load i32, i32* %5, align 4
  %48 = sext i32 %47 to i64
  %49 = getelementptr inbounds [15 x i8], [15 x i8]* %1, i64 0, i64 %48
  %50 = load i8, i8* %49, align 1
  %51 = sext i8 %50 to i32
  %52 = icmp eq i32 %46, %51
  br i1 %52, label %53, label %54

53:                                               ; preds = %44
  br label %58

54:                                               ; preds = %44
  br label %55

55:                                               ; preds = %54
  %56 = load i32, i32* %5, align 4
  %57 = add nsw i32 %56, 1
  store i32 %57, i32* %5, align 4
  br label %44

58:                                               ; preds = %53
  %59 = load i32, i32* %7, align 4
  %60 = sub nsw i32 %59, 1
  store i32 %60, i32* %8, align 4
  br label %61

61:                                               ; preds = %76, %58
  %62 = load i32, i32* %8, align 4
  %63 = load i32, i32* %5, align 4
  %64 = add nsw i32 %63, 1
  %65 = icmp sge i32 %62, %64
  br i1 %65, label %66, label %79

66:                                               ; preds = %61
  %67 = load i32, i32* %8, align 4
  %68 = sext i32 %67 to i64
  %69 = getelementptr inbounds [15 x i8], [15 x i8]* %1, i64 0, i64 %68
  %70 = load i8, i8* %69, align 1
  %71 = load i32, i32* %8, align 4
  %72 = load i32, i32* %6, align 4
  %73 = add nsw i32 %71, %72
  %74 = sext i32 %73 to i64
  %75 = getelementptr inbounds [15 x i8], [15 x i8]* %1, i64 0, i64 %74
  store i8 %70, i8* %75, align 1
  br label %76

76:                                               ; preds = %66
  %77 = load i32, i32* %8, align 4
  %78 = add nsw i32 %77, -1
  store i32 %78, i32* %8, align 4
  br label %61

79:                                               ; preds = %61
  %80 = load i32, i32* %5, align 4
  %81 = add nsw i32 %80, 1
  store i32 %81, i32* %8, align 4
  br label %82

82:                                               ; preds = %99, %79
  %83 = load i32, i32* %8, align 4
  %84 = load i32, i32* %5, align 4
  %85 = load i32, i32* %6, align 4
  %86 = add nsw i32 %84, %85
  %87 = icmp sle i32 %83, %86
  br i1 %87, label %88, label %102

88:                                               ; preds = %82
  %89 = load i32, i32* %8, align 4
  %90 = load i32, i32* %5, align 4
  %91 = sub nsw i32 %89, %90
  %92 = sub nsw i32 %91, 1
  %93 = sext i32 %92 to i64
  %94 = getelementptr inbounds [5 x i8], [5 x i8]* %2, i64 0, i64 %93
  %95 = load i8, i8* %94, align 1
  %96 = load i32, i32* %8, align 4
  %97 = sext i32 %96 to i64
  %98 = getelementptr inbounds [15 x i8], [15 x i8]* %1, i64 0, i64 %97
  store i8 %95, i8* %98, align 1
  br label %99

99:                                               ; preds = %88
  %100 = load i32, i32* %8, align 4
  %101 = add nsw i32 %100, 1
  store i32 %101, i32* %8, align 4
  br label %82

102:                                              ; preds = %82
  %103 = load i32, i32* %7, align 4
  %104 = load i32, i32* %6, align 4
  %105 = add nsw i32 %103, %104
  %106 = sext i32 %105 to i64
  %107 = getelementptr inbounds [15 x i8], [15 x i8]* %1, i64 0, i64 %106
  store i8 0, i8* %107, align 1
  %108 = getelementptr inbounds [15 x i8], [15 x i8]* %1, i64 0, i64 0
  %109 = call i32 (i8*, ...) @printf(i8* getelementptr inbounds ([4 x i8], [4 x i8]* @.str.1, i64 0, i64 0), i8* %108)
  br label %9

110:                                              ; preds = %9
  ret void
}